; Function Attrs: mustprogress nofree norecurse nosync nounwind willreturn memory(argmem: readwrite) uwtable
define dso_local range(i32 0, 2) i32 @hllDenseSet(ptr noundef captures(none) %0, i64 noundef %1, i8 noundef zeroext %2) local_unnamed_addr #4 {
  %4 = mul nsw i64 %1, 6
  %5 = sdiv i64 %4, 8
  %6 = and i64 %4, 6
  %7 = sub nuw nsw i64 8, %6
  %8 = getelementptr inbounds nuw i8, ptr %0, i64 %5
  %9 = load i8, ptr %8, align 1, !tbaa !11
  %10 = zext i8 %9 to i64
  %11 = getelementptr i8, ptr %8, i64 1
  %12 = load i8, ptr %11, align 1, !tbaa !11
  %13 = zext i8 %12 to i64
  %14 = lshr i64 %10, %6
  %15 = shl nuw nsw i64 %13, %7
  %16 = or i64 %15, %14
  %17 = trunc nuw nsw i64 %16 to i32
  %18 = and i32 %17, 63
  %19 = zext i8 %2 to i32
  %20 = icmp samesign ult i32 %18, %19
  br i1 %20, label %21, label %37

21:                                               ; preds = %3
  %22 = zext i8 %2 to i64
  %23 = trunc nuw nsw i64 %6 to i8
  %24 = shl i8 63, %23
  %25 = xor i8 %24, -1
  %26 = and i8 %9, %25
  %27 = shl nuw nsw i64 %22, %6
  %28 = trunc i64 %27 to i8
  %29 = or i8 %26, %28
  store i8 %29, ptr %8, align 1, !tbaa !11
  %30 = trunc nuw nsw i64 %7 to i16
  %31 = ashr i16 -64, %30
  %32 = trunc nsw i16 %31 to i8
  %33 = and i8 %12, %32
  %34 = lshr i64 %22, %7
  %35 = trunc nuw nsw i64 %34 to i8
  %36 = or i8 %33, %35
  store i8 %36, ptr %11, align 1, !tbaa !11
  br label %37

37:                                               ; preds = %3, %21
  %.0 = phi i32 [ 1, %21 ], [ 0, %3 ]
  ret i32 %.0
}